; ModuleID = '56/340.c'
source_filename = "56/340.c"
target datalayout = "e-m:e-p270:32:32-p271:32:32-p272:64:64-i64:64-f80:128-n8:16:32:64-S128"
target triple = "x86_64-pc-linux-gnu"

@.str = private unnamed_addr constant [3 x i8] c"%d\00", align 1
@.str.1 = private unnamed_addr constant [4 x i8] c"%d\0A\00", align 1

; Function Attrs: noinline nounwind uwtable
define dso_local i32 @main(i32 %0, i8** %1) #0 {
  %3 = alloca i32, align 4
  %4 = alloca i32, align 4
  %5 = alloca i8**, align 8
  %6 = alloca i32, align 4
  %7 = alloca i32, align 4
  %8 = alloca i32, align 4
  %9 = alloca i32, align 4
  %10 = alloca i32, align 4
  %11 = alloca i32, align 4
  %12 = alloca i32, align 4
  store i32 0, i32* %3, align 4
  store i32 %0, i32* %4, align 4
  store i8** %1, i8*** %5, align 8
  %13 = call i32 (i8*, ...) @__isoc99_scanf(i8* getelementptr inbounds ([3 x i8], [3 x i8]* @.str, i64 0, i64 0), i32* %6)
  %14 = load i32, i32* %6, align 4
  %15 = sdiv i32 %14, 10000
  store i32 %15, i32* %7, align 4
  %16 = load i32, i32* %6, align 4
  %17 = load i32, i32* %7, align 4
  %18 = mul nsw i32 %17, 10000
  %19 = sub nsw i32 %16, %18
  %20 = sdiv i32 %19, 1000
  store i32 %20, i32* %8, align 4
  %21 = load i32, i32* %6, align 4
  %22 = load i32, i32* %7, align 4
  %23 = mul nsw i32 %22, 10000
  %24 = sub nsw i32 %21, %23
  %25 = load i32, i32* %8, align 4
  %26 = mul nsw i32 %25, 1000
  %27 = sub nsw i32 %24, %26
  %28 = sdiv i32 %27, 100
  store i32 %28, i32* %9, align 4
  %29 = load i32, i32* %6, align 4
  %30 = load i32, i32* %7, align 4
  %31 = mul nsw i32 %30, 10000
  %32 = sub nsw i32 %29, %31
  %33 = load i32, i32* %8, align 4
  %34 = mul nsw i32 %33, 1000
  %35 = sub nsw i32 %32, %34
  %36 = load i32, i32* %9, align 4
  %37 = mul nsw i32 %36, 100
  %38 = sub nsw i32 %35, %37
  %39 = sdiv i32 %38, 10
  store i32 %39, i32* %10, align 4
  %40 = load i32, i32* %6, align 4
  %41 = load i32, i32* %7, align 4
  %42 = mul nsw i32 %41, 10000
  %43 = sub nsw i32 %40, %42
  %44 = load i32, i32* %8, align 4
  %45 = mul nsw i32 %44, 1000
  %46 = sub nsw i32 %43, %45
  %47 = load i32, i32* %9, align 4
  %48 = mul nsw i32 %47, 100
  %49 = sub nsw i32 %46, %48
  %50 = load i32, i32* %10, align 4
  %51 = mul nsw i32 %50, 10
  %52 = sub nsw i32 %49, %51
  %53 = sdiv i32 %52, 1
  store i32 %53, i32* %11, align 4
  %54 = load i32, i32* %7, align 4
  %55 = icmp ne i32 %54, 0
  br i1 %55, label %56, label %72

56:                                               ; preds = %2
  %57 = load i32, i32* %11, align 4
  %58 = mul nsw i32 %57, 10000
  %59 = load i32, i32* %10, align 4
  %60 = mul nsw i32 %59, 1000
  %61 = add nsw i32 %58, %60
  %62 = load i32, i32* %9, align 4
  %63 = mul nsw i32 %62, 100
  %64 = add nsw i32 %61, %63
  %65 = load i32, i32* %8, align 4
  %66 = mul nsw i32 %65, 10
  %67 = add nsw i32 %64, %66
  %68 = load i32, i32* %7, align 4
  %69 = add nsw i32 %67, %68
  store i32 %69, i32* %12, align 4
  %70 = load i32, i32* %12, align 4
  %71 = call i32 (i8*, ...) @printf(i8* getelementptr inbounds ([4 x i8], [4 x i8]* @.str.1, i64 0, i64 0), i32 %70)
  br label %72

72:                                               ; preds = %56, %2
  %73 = load i32, i32* %7, align 4
  %74 = icmp eq i32 %73, 0
  br i1 %74, label %75, label %92

75:                                               ; preds = %72
  %76 = load i32, i32* %8, align 4
  %77 = icmp ne i32 %76, 0
  br i1 %77, label %78, label %92

78:                                               ; preds = %75
  %79 = load i32, i32* %11, align 4
  %80 = mul nsw i32 %79, 1000
  %81 = load i32, i32* %10, align 4
  %82 = mul nsw i32 %81, 100
  %83 = add nsw i32 %80, %82
  %84 = load i32, i32* %9, align 4
  %85 = mul nsw i32 %84, 10
  %86 = add nsw i32 %83, %85
  %87 = load i32, i32* %8, align 4
  %88 = mul nsw i32 %87, 1
  %89 = add nsw i32 %86, %88
  store i32 %89, i32* %12, align 4
  %90 = load i32, i32* %12, align 4
  %91 = call i32 (i8*, ...) @printf(i8* getelementptr inbounds ([4 x i8], [4 x i8]* @.str.1, i64 0, i64 0), i32 %90)
  br label %92

92:                                               ; preds = %78, %75, %72
  %93 = load i32, i32* %7, align 4
  %94 = icmp eq i32 %93, 0
  br i1 %94, label %95, label %112

95:                                               ; preds = %92
  %96 = load i32, i32* %8, align 4
  %97 = icmp eq i32 %96, 0
  br i1 %97, label %98, label %112

98:                                               ; preds = %95
  %99 = load i32, i32* %9, align 4
  %100 = icmp ne i32 %99, 0
  br i1 %100, label %101, label %112

101:                                              ; preds = %98
  %102 = load i32, i32* %11, align 4
  %103 = mul nsw i32 %102, 100
  %104 = load i32, i32* %10, align 4
  %105 = mul nsw i32 %104, 10
  %106 = add nsw i32 %103, %105
  %107 = load i32, i32* %9, align 4
  %108 = mul nsw i32 %107, 1
  %109 = add nsw i32 %106, %108
  store i32 %109, i32* %12, align 4
  %110 = load i32, i32* %12, align 4
  %111 = call i32 (i8*, ...) @printf(i8* getelementptr inbounds ([4 x i8], [4 x i8]* @.str.1, i64 0, i64 0), i32 %110)
  br label %112

112:                                              ; preds = %101, %98, %95, %92
  %113 = load i32, i32* %7, align 4
  %114 = icmp eq i32 %113, 0
  br i1 %114, label %115, label %132

115:                                              ; preds = %112
  %116 = load i32, i32* %8, align 4
  %117 = icmp eq i32 %116, 0
  br i1 %117, label %118, label %132

118:                                              ; preds = %115
  %119 = load i32, i32* %9, align 4
  %120 = icmp eq i32 %119, 0
  br i1 %120, label %121, label %132

121:                                              ; preds = %118
  %122 = load i32, i32* %10, align 4
  %123 = icmp ne i32 %122, 0
  br i1 %123, label %124, label %132

124:                                              ; preds = %121
  %125 = load i32, i32* %11, align 4
  %126 = mul nsw i32 %125, 10
  %127 = load i32, i32* %10, align 4
  %128 = mul nsw i32 %127, 1
  %129 = add nsw i32 %126, %128
  store i32 %129, i32* %12, align 4
  %130 = load i32, i32* %12, align 4
  %131 = call i32 (i8*, ...) @printf(i8* getelementptr inbounds ([4 x i8], [4 x i8]* @.str.1, i64 0, i64 0), i32 %130)
  br label %132

132:                                              ; preds = %124, %121, %118, %115, %112
  %133 = load i32, i32* %7, align 4
  %134 = icmp eq i32 %133, 0
  br i1 %134, label %135, label %151

135:                                              ; preds = %132
  %136 = load i32, i32* %8, align 4
  %137 = icmp eq i32 %136, 0
  br i1 %137, label %138, label %151

138:                                              ; preds = %135
  %139 = load i32, i32* %9, align 4
  %140 = icmp eq i32 %139, 0
  br i1 %140, label %141, label %151

141:                                              ; preds = %138
  %142 = load i32, i32* %10, align 4
  %143 = icmp eq i32 %142, 0
  br i1 %143, label %144, label %151

144:                                              ; preds = %141
  %145 = load i32, i32* %11, align 4
  %146 = icmp ne i32 %145, 0
  br i1 %146, label %147, label %151

147:                                              ; preds = %144
  %148 = load i32, i32* %11, align 4
  store i32 %148, i32* %12, align 4
  %149 = load i32, i32* %12, align 4
  %150 = call i32 (i8*, ...) @printf(i8* getelementptr inbounds ([4 x i8], [4 x i8]* @.str.1, i64 0, i64 0), i32 %149)
  br label %151

151:                                              ; preds = %147, %144, %141, %138, %135, %132
  ret i32 0
}

declare dso_local i32 @__isoc99_scanf(i8*, ...) #1

declare dso_local i32 @printf(i8*, ...) #1


!llvm.module.flags = !{!0}
!llvm.ident = !{!1}

!0 = !{i32 1, !"wchar_size", i32 4}
!1 = !{!"clang version 10.0.0-4ubuntu1 "}
